target datalayout = "e-m:e-p270:32:32-p271:32:32-p272:64:64-i64:64-i128:128-f80:128-n8:16:32:64-S128"
target triple = "x86_64-pc-linux-gnu"

%"class.std::vector" = type { %"struct.std::_Vector_base" }
%"struct.std::_Vector_base" = type { %"struct.std::_Vector_base<int, std::allocator<int>>::_Vector_impl" }
%"struct.std::_Vector_base<int, std::allocator<int>>::_Vector_impl" = type { %"struct.std::_Vector_base<int, std::allocator<int>>::_Vector_impl_data" }
%"struct.std::_Vector_base<int, std::allocator<int>>::_Vector_impl_data" = type { ptr, ptr, ptr }
%"class.std::vector.3" = type { %"struct.std::_Vector_base.4" }
%"struct.std::_Vector_base.4" = type { %"struct.std::_Vector_base<unsigned long, std::allocator<unsigned long>>::_Vector_impl" }
%"struct.std::_Vector_base<unsigned long, std::allocator<unsigned long>>::_Vector_impl" = type { %"struct.std::_Vector_base<unsigned long, std::allocator<unsigned long>>::_Vector_impl_data" }
%"struct.std::_Vector_base<unsigned long, std::allocator<unsigned long>>::_Vector_impl_data" = type { ptr, ptr, ptr }
%"class.std::vector.8" = type { %"struct.std::_Vector_base.9" }
%"struct.std::_Vector_base.9" = type { %"struct.std::_Vector_base<double, std::allocator<double>>::_Vector_impl" }
%"struct.std::_Vector_base<double, std::allocator<double>>::_Vector_impl" = type { %"struct.std::_Vector_base<double, std::allocator<double>>::_Vector_impl_data" }
%"struct.std::_Vector_base<double, std::allocator<double>>::_Vector_impl_data" = type { ptr, ptr, ptr }
%"class.std::vector.13" = type { %"struct.std::_Vector_base.14" }
%"struct.std::_Vector_base.14" = type { %"struct.std::_Vector_base<colvarmodule::rvector, std::allocator<colvarmodule::rvector>>::_Vector_impl" }
%"struct.std::_Vector_base<colvarmodule::rvector, std::allocator<colvarmodule::rvector>>::_Vector_impl" = type { %"struct.std::_Vector_base<colvarmodule::rvector, std::allocator<colvarmodule::rvector>>::_Vector_impl_data" }
%"struct.std::_Vector_base<colvarmodule::rvector, std::allocator<colvarmodule::rvector>>::_Vector_impl_data" = type { ptr, ptr, ptr }
%class.colvarproxy_atoms = type <{ ptr, %"class.std::vector", %"class.std::vector.3", %"class.std::vector.8", %"class.std::vector.8", %"class.std::vector.13", %"class.std::vector.13", %"class.std::vector.13", double, double, i32, i8, i8, i8, i8 }>

; Function Attrs: mustprogress nounwind uwtable
define linkonce_odr noundef nonnull align 8 dereferenceable(8) ptr @_ZNSt6vectorImSaImEEixEm(ptr noundef nonnull align 8 dereferenceable(24) %0, i64 noundef %1) #0 comdat align 2 {
  %3 = alloca ptr, align 8
  %4 = alloca i64, align 8
  store ptr %0, ptr %3, align 8
  store i64 %1, ptr %4, align 8
  %5 = load ptr, ptr %3, align 8
  %6 = getelementptr inbounds %"struct.std::_Vector_base.4", ptr %5, i32 0, i32 0
  %7 = getelementptr inbounds %"struct.std::_Vector_base<unsigned long, std::allocator<unsigned long>>::_Vector_impl_data", ptr %6, i32 0, i32 0
  %8 = load ptr, ptr %7, align 8
  %9 = load i64, ptr %4, align 8
  %10 = getelementptr inbounds i64, ptr %8, i64 %9
  ret ptr %10
}

; Function Attrs: mustprogress nounwind uwtable
define linkonce_odr noundef nonnull align 4 dereferenceable(4) ptr @_ZNSt6vectorIiSaIiEEixEm(ptr noundef nonnull align 8 dereferenceable(24) %0, i64 noundef %1) #0 comdat align 2 {
  %3 = alloca ptr, align 8
  %4 = alloca i64, align 8
  store ptr %0, ptr %3, align 8
  store i64 %1, ptr %4, align 8
  %5 = load ptr, ptr %3, align 8
  %6 = getelementptr inbounds %"struct.std::_Vector_base", ptr %5, i32 0, i32 0
  %7 = getelementptr inbounds %"struct.std::_Vector_base<int, std::allocator<int>>::_Vector_impl_data", ptr %6, i32 0, i32 0
  %8 = load ptr, ptr %7, align 8
  %9 = load i64, ptr %4, align 8
  %10 = getelementptr inbounds i32, ptr %8, i64 %9
  ret ptr %10
}

; Function Attrs: mustprogress nounwind uwtable
define linkonce_odr noundef i64 @_ZNKSt6vectorIiSaIiEE4sizeEv(ptr noundef nonnull align 8 dereferenceable(24) %0) #0 comdat align 2 {
  %2 = alloca ptr, align 8
  store ptr %0, ptr %2, align 8
  %3 = load ptr, ptr %2, align 8
  %4 = getelementptr inbounds %"struct.std::_Vector_base", ptr %3, i32 0, i32 0
  %5 = getelementptr inbounds %"struct.std::_Vector_base<int, std::allocator<int>>::_Vector_impl_data", ptr %4, i32 0, i32 1
  %6 = load ptr, ptr %5, align 8
  %7 = getelementptr inbounds %"struct.std::_Vector_base", ptr %3, i32 0, i32 0
  %8 = getelementptr inbounds %"struct.std::_Vector_base<int, std::allocator<int>>::_Vector_impl_data", ptr %7, i32 0, i32 0
  %9 = load ptr, ptr %8, align 8
  %10 = ptrtoint ptr %6 to i64
  %11 = ptrtoint ptr %9 to i64
  %12 = sub i64 %10, %11
  %13 = sdiv exact i64 %12, 4
  ret i64 %13
}

; Function Attrs: mustprogress uwtable
define noundef i32 @_ZN3gmx18ColvarProxyGromacs9init_atomEi(ptr noundef nonnull align 8 dereferenceable(1728) %0, i32 noundef %1) unnamed_addr #1 align 2 {
  %3 = alloca i32, align 4
  %4 = alloca ptr, align 8
  %5 = alloca i32, align 4
  %6 = alloca i32, align 4
  %7 = alloca i64, align 8
  %8 = alloca i32, align 4
  store ptr %0, ptr %4, align 8
  store i32 %1, ptr %5, align 4
  %9 = load ptr, ptr %4, align 8
  %10 = load i32, ptr %5, align 4
  %11 = sub nsw i32 %10, 1
  store i32 %11, ptr %6, align 4
  store i64 0, ptr %7, align 8
  br label %12

12:                                               ; preds = %36, %2
  %13 = load i64, ptr %7, align 8
  %14 = getelementptr inbounds i8, ptr %9, i64 256
  %15 = getelementptr inbounds %class.colvarproxy_atoms, ptr %14, i32 0, i32 1
  %16 = call noundef i64 @_ZNKSt6vectorIiSaIiEE4sizeEv(ptr noundef nonnull align 8 dereferenceable(24) %15) #14
  %17 = icmp ult i64 %13, %16
  br i1 %17, label %18, label %39

18:                                               ; preds = %12
  %19 = getelementptr inbounds i8, ptr %9, i64 256
  %20 = getelementptr inbounds %class.colvarproxy_atoms, ptr %19, i32 0, i32 1
  %21 = load i64, ptr %7, align 8
  %22 = call noundef nonnull align 4 dereferenceable(4) ptr @_ZNSt6vectorIiSaIiEEixEm(ptr noundef nonnull align 8 dereferenceable(24) %20, i64 noundef %21) #14
  %23 = load i32, ptr %22, align 4
  %24 = load i32, ptr %6, align 4
  %25 = icmp eq i32 %23, %24
  br i1 %25, label %26, label %35

26:                                               ; preds = %18
  %27 = getelementptr inbounds i8, ptr %9, i64 256
  %28 = getelementptr inbounds %class.colvarproxy_atoms, ptr %27, i32 0, i32 2
  %29 = load i64, ptr %7, align 8
  %30 = call noundef nonnull align 8 dereferenceable(8) ptr @_ZNSt6vectorImSaImEEixEm(ptr noundef nonnull align 8 dereferenceable(24) %28, i64 noundef %29) #14
  %31 = load i64, ptr %30, align 8
  %32 = add i64 %31, 1
  store i64 %32, ptr %30, align 8
  %33 = load i64, ptr %7, align 8
  %34 = trunc i64 %33 to i32
  store i32 %34, ptr %3, align 4
  br label %54

35:                                               ; preds = %18
  br label %36

36:                                               ; preds = %35
  %37 = load i64, ptr %7, align 8
  %38 = add i64 %37, 1
  store i64 %38, ptr %7, align 8
  br label %12, !llvm.loop !7

39:                                               ; preds = %12
  %40 = load i32, ptr %5, align 4
  %41 = load ptr, ptr %9, align 8
  %42 = getelementptr inbounds ptr, ptr %41, i64 29
  %43 = load ptr, ptr %42, align 8
  %44 = call noundef i32 %43(ptr noundef nonnull align 8 dereferenceable(1728) %9, i32 noundef %40)
  store i32 %44, ptr %6, align 4
  %45 = load i32, ptr %6, align 4
  %46 = icmp slt i32 %45, 0
  br i1 %46, label %47, label %48

47:                                               ; preds = %39
  store i32 4, ptr %3, align 4
  br label %54

48:                                               ; preds = %39
  %49 = getelementptr inbounds i8, ptr %9, i64 256
  %50 = load i32, ptr %6, align 4
  %51 = call noundef i32 @_ZN17colvarproxy_atoms13add_atom_slotEi(ptr noundef nonnull align 8 dereferenceable(199) %49, i32 noundef %50)
  store i32 %51, ptr %8, align 4
  %52 = load i32, ptr %8, align 4
  call void @_ZN3gmx18ColvarProxyGromacs20updateAtomPropertiesEi(ptr noundef nonnull align 8 dereferenceable(1728) %9, i32 noundef %52)
  %53 = load i32, ptr %8, align 4
  store i32 %53, ptr %3, align 4
  br label %54

54:                                               ; preds = %48, %47, %26
  %55 = load i32, ptr %3, align 4
  ret i32 %55
}

; Function Attrs: uwtable
define noundef i32 @_ZThn256_N3gmx18ColvarProxyGromacs9init_atomEi(ptr noundef %0, i32 noundef %1) unnamed_addr #4 align 2 {
  %3 = alloca ptr, align 8
  %4 = alloca i32, align 4
  store ptr %0, ptr %3, align 8
  store i32 %1, ptr %4, align 4
  %5 = load ptr, ptr %3, align 8
  %6 = getelementptr inbounds i8, ptr %5, i64 -256
  %7 = load i32, ptr %4, align 4
  %8 = tail call noundef i32 @_ZN3gmx18ColvarProxyGromacs9init_atomEi(ptr noundef nonnull align 8 dereferenceable(1728) %6, i32 noundef %7)
  ret i32 %8
}