; Function Attrs: uwtable
define noundef i32 @_ZThn256_N3gmx18ColvarProxyGromacs9init_atomEi(ptr noundef %0, i32 noundef %1) unnamed_addr #5 align 2 {
  %3 = getelementptr inbounds i8, ptr %0, i64 -256
  %4 = add nsw i32 %1, -1
  %5 = getelementptr inbounds i8, ptr %0, i64 8
  %6 = getelementptr inbounds i8, ptr %0, i64 16
  %7 = load ptr, ptr %6, align 8
  %8 = load ptr, ptr %5, align 8
  %.not.i = icmp eq ptr %7, %8
  br i1 %.not.i, label %._crit_edge.i, label %.lr.ph.preheader.i

.lr.ph.preheader.i:                               ; preds = %2
  %9 = ptrtoint ptr %7 to i64
  %10 = ptrtoint ptr %8 to i64
  %11 = sub i64 %9, %10
  %12 = ashr exact i64 %11, 2
  %umax.i = tail call i64 @llvm.umax.i64(i64 %12, i64 1)
  br label %.lr.ph.i

.lr.ph.i:                                         ; preds = %23, %.lr.ph.preheader.i
  %.01317.i = phi i64 [ %24, %23 ], [ 0, %.lr.ph.preheader.i ]
  %13 = getelementptr inbounds i32, ptr %8, i64 %.01317.i
  %14 = load i32, ptr %13, align 4
  %15 = icmp eq i32 %14, %4
  br i1 %15, label %16, label %23

16:                                               ; preds = %.lr.ph.i
  %17 = getelementptr inbounds i8, ptr %0, i64 32
  %18 = load ptr, ptr %17, align 8
  %19 = getelementptr inbounds i64, ptr %18, i64 %.01317.i
  %20 = load i64, ptr %19, align 8
  %21 = add i64 %20, 1
  store i64 %21, ptr %19, align 8
  %22 = trunc i64 %.01317.i to i32
  br label %_ZN3gmx18ColvarProxyGromacs9init_atomEi.exit

23:                                               ; preds = %.lr.ph.i
  %24 = add nuw i64 %.01317.i, 1
  %exitcond.not.i = icmp eq i64 %24, %umax.i
  br i1 %exitcond.not.i, label %._crit_edge.i, label %.lr.ph.i, !llvm.loop !11

._crit_edge.i:                                    ; preds = %23, %2
  %25 = load ptr, ptr %3, align 8
  %26 = getelementptr inbounds i8, ptr %25, i64 232
  %27 = load ptr, ptr %26, align 8
  %28 = tail call noundef i32 %27(ptr noundef nonnull align 8 dereferenceable(1728) %3, i32 noundef %1)
  %29 = icmp slt i32 %28, 0
  br i1 %29, label %_ZN3gmx18ColvarProxyGromacs9init_atomEi.exit, label %30

30:                                               ; preds = %._crit_edge.i
  %31 = tail call noundef i32 @_ZN17colvarproxy_atoms13add_atom_slotEi(ptr noundef nonnull align 8 dereferenceable(199) %0, i32 noundef %28)
  tail call void @_ZN3gmx18ColvarProxyGromacs20updateAtomPropertiesEi(ptr noundef nonnull align 8 dereferenceable(1728) %3, i32 noundef %31)
  br label %_ZN3gmx18ColvarProxyGromacs9init_atomEi.exit

_ZN3gmx18ColvarProxyGromacs9init_atomEi.exit:     ; preds = %16, %._crit_edge.i, %30
  %.0.i = phi i32 [ %22, %16 ], [ %31, %30 ], [ 4, %._crit_edge.i ]
  ret i32 %.0.i
}